(lp1
(lp2
(isteveplan
Event
p3
(dp4
S'date'
p5
cdatetime
date
p6
(S'\x07\xdf\n\x17'
tRp7
sS'duration'
p8
F1
sS'description'
p9
S'Site Visit'
p10
sbaa(lp11
(isteveplan
Task
p12
(dp13
g8
F45
sg9
S'Complete Construction Documents'
p14
sba(isteveplan
Task
p15
(dp16
g8
F3
sg9
S'Review Engineering Drawings'
p17
sba(isteveplan
Task
p18
(dp19
g8
F3
sg9
S'Update Accounting'
p20
sba(isteveplan
Task
p21
(dp22
g8
F2
sg9
S'Purchase Office Furniture'
p23
sbaa(dp24
S'1425 12 Palmer'
p25
(lp26
NasS'1513 115 Madison'
p27
(lp28
NasS'1518 57 Fleet'
p29
(lp30
NasS'1505 Nohrden'
p31
(lp32
g12
asS'1527 Boynton Public Library'
p33
(lp34
NasS'1523 113-115 Elm'
p35
(lp36
NasS'1514 Templeton PD Addition'
p37
(lp38
g15
asS'1529 Brush Hill Poolhouse'
p39
(lp40
NasS'1501 Allsobrooks Residence'
p41
(lp42
g3
asS'1524 Kaulbach'
p43
(lp44
NasS'1526 Warila'
p45
(lp46
NasS'1532 Jankauskas Garage'
p47
(lp48
NasS'1510 Parker'
p49
(lp50
NasS'1504 Roche'
p51
(lp52
NasS'Unassigned'
p53
(lp54
g21
ag18
asS'1418 Templeton Town Hall'
p55
(lp56
NasS'1533 56 Magnolia'
p57
(lp58
Nasa.